; Function Attrs: nounwind uwtable
define zeroext range(i8 0, 2) i8 @l_Array_anyMUnsafe_any___at_Lake_StrPat_mem___spec__2(ptr noundef %0, ptr noundef readonly captures(none) %1, i64 noundef %2, i64 noundef %3) local_unnamed_addr #0 {
  %.not53 = icmp eq i64 %2, %3
  br i1 %.not53, label %.._crit_edge_crit_edge, label %.lr.ph

.._crit_edge_crit_edge:                           ; preds = %4
  %.pre = ptrtoint ptr %0 to i64
  %.pre55 = and i64 %.pre, 1
  br label %._crit_edge

.lr.ph:                                           ; preds = %4
  %5 = getelementptr inbounds nuw i8, ptr %1, i64 24
  %6 = ptrtoint ptr %0 to i64
  %7 = and i64 %6, 1
  %.not51 = icmp eq i64 %7, 0
  br label %10

8:                                                ; preds = %lean_dec.exit29
  %9 = add i64 %.02254, 1
  %.not = icmp eq i64 %9, %3
  br i1 %.not, label %._crit_edge, label %10

10:                                               ; preds = %.lr.ph, %8
  %.02254 = phi i64 [ %2, %.lr.ph ], [ %9, %8 ]
  %11 = getelementptr inbounds nuw [0 x ptr], ptr %5, i64 0, i64 %.02254
  %12 = load ptr, ptr %11, align 8, !tbaa !4
  %13 = ptrtoint ptr %12 to i64
  %14 = and i64 %13, 1
  %.not.i37 = icmp eq i64 %14, 0
  br i1 %.not.i37, label %15, label %lean_array_uget.exit

15:                                               ; preds = %10
  %.val.i.i = load i32, ptr %12, align 4, !tbaa !8
  %16 = icmp sgt i32 %.val.i.i, 0
  br i1 %16, label %17, label %19, !prof !11

17:                                               ; preds = %15
  %18 = add nuw i32 %.val.i.i, 1
  store i32 %18, ptr %12, align 4, !tbaa !8
  br label %lean_array_uget.exit

19:                                               ; preds = %15
  %.not.i.i = icmp eq i32 %.val.i.i, 0
  br i1 %.not.i.i, label %lean_array_uget.exit, label %20

20:                                               ; preds = %19
  tail call void @lean_inc_ref_cold(ptr noundef nonnull %12) #7
  br label %lean_array_uget.exit

lean_array_uget.exit:                             ; preds = %10, %17, %19, %20
  %21 = getelementptr inbounds nuw i8, ptr %12, i64 8
  %22 = load ptr, ptr %21, align 8, !tbaa !4
  %23 = ptrtoint ptr %22 to i64
  %24 = and i64 %23, 1
  %.not49 = icmp eq i64 %24, 0
  br i1 %.not49, label %25, label %lean_inc.exit27

25:                                               ; preds = %lean_array_uget.exit
  %.val.i = load i32, ptr %22, align 4, !tbaa !8
  %26 = icmp sgt i32 %.val.i, 0
  br i1 %26, label %27, label %29, !prof !11

27:                                               ; preds = %25
  %28 = add nuw i32 %.val.i, 1
  store i32 %28, ptr %22, align 4, !tbaa !8
  br label %lean_inc.exit27

29:                                               ; preds = %25
  %.not.i38 = icmp eq i32 %.val.i, 0
  br i1 %.not.i38, label %lean_inc.exit27, label %30

30:                                               ; preds = %29
  tail call void @lean_inc_ref_cold(ptr noundef nonnull %22) #7
  br label %lean_inc.exit27

lean_inc.exit27:                                  ; preds = %30, %29, %27, %lean_array_uget.exit
  br i1 %.not.i37, label %31, label %lean_dec.exit30

31:                                               ; preds = %lean_inc.exit27
  %32 = load i32, ptr %12, align 4, !tbaa !8
  %33 = icmp sgt i32 %32, 1
  br i1 %33, label %34, label %36, !prof !11

34:                                               ; preds = %31
  %35 = add nsw i32 %32, -1
  store i32 %35, ptr %12, align 4, !tbaa !8
  br label %lean_dec.exit30

36:                                               ; preds = %31
  %.not.i = icmp eq i32 %32, 0
  br i1 %.not.i, label %lean_dec.exit30, label %37

37:                                               ; preds = %36
  tail call void @lean_dec_ref_cold(ptr noundef nonnull %12) #7
  br label %lean_dec.exit30

lean_dec.exit30:                                  ; preds = %37, %36, %34, %lean_inc.exit27
  br i1 %.not51, label %38, label %lean_inc.exit

38:                                               ; preds = %lean_dec.exit30
  %.val.i39 = load i32, ptr %0, align 4, !tbaa !8
  %39 = icmp sgt i32 %.val.i39, 0
  br i1 %39, label %40, label %42, !prof !11

40:                                               ; preds = %38
  %41 = add nuw i32 %.val.i39, 1
  store i32 %41, ptr %0, align 4, !tbaa !8
  br label %lean_inc.exit

42:                                               ; preds = %38
  %.not.i40 = icmp eq i32 %.val.i39, 0
  br i1 %.not.i40, label %lean_inc.exit, label %43

43:                                               ; preds = %42
  tail call void @lean_inc_ref_cold(ptr noundef nonnull %0) #7
  br label %lean_inc.exit

lean_inc.exit:                                    ; preds = %43, %42, %40, %lean_dec.exit30
  %44 = tail call ptr @lean_apply_1(ptr noundef %22, ptr noundef %0) #7
  %45 = ptrtoint ptr %44 to i64
  %46 = and i64 %45, 1
  %.not52 = icmp eq i64 %46, 0
  br i1 %.not52, label %47, label %lean_dec.exit29

47:                                               ; preds = %lean_inc.exit
  %48 = load i32, ptr %44, align 4, !tbaa !8
  %49 = icmp sgt i32 %48, 1
  br i1 %49, label %50, label %52, !prof !11

50:                                               ; preds = %47
  %51 = add nsw i32 %48, -1
  store i32 %51, ptr %44, align 4, !tbaa !8
  br label %lean_dec.exit29

52:                                               ; preds = %47
  %.not.i31 = icmp eq i32 %48, 0
  br i1 %.not.i31, label %lean_dec.exit29, label %53

53:                                               ; preds = %52
  tail call void @lean_dec_ref_cold(ptr noundef nonnull %44) #7
  br label %lean_dec.exit29

lean_dec.exit29:                                  ; preds = %53, %52, %50, %lean_inc.exit
  %54 = and i64 %45, 510
  %55 = icmp eq i64 %54, 0
  br i1 %55, label %56, label %8

56:                                               ; preds = %lean_dec.exit29
  br i1 %.not51, label %57, label %71

57:                                               ; preds = %56
  %58 = load i32, ptr %0, align 4, !tbaa !8
  %59 = icmp sgt i32 %58, 1
  br i1 %59, label %60, label %62, !prof !11

60:                                               ; preds = %57
  %61 = add nsw i32 %58, -1
  store i32 %61, ptr %0, align 4, !tbaa !8
  br label %71

62:                                               ; preds = %57
  %.not.i33 = icmp eq i32 %58, 0
  br i1 %.not.i33, label %71, label %63

63:                                               ; preds = %62
  tail call void @lean_dec_ref_cold(ptr noundef nonnull %0) #7
  br label %71

._crit_edge:                                      ; preds = %8, %.._crit_edge_crit_edge
  %.pre-phi56 = phi i64 [ %.pre55, %.._crit_edge_crit_edge ], [ %7, %8 ]
  %.not48 = icmp eq i64 %.pre-phi56, 0
  br i1 %.not48, label %64, label %71

64:                                               ; preds = %._crit_edge
  %65 = load i32, ptr %0, align 4, !tbaa !8
  %66 = icmp sgt i32 %65, 1
  br i1 %66, label %67, label %69, !prof !11

67:                                               ; preds = %64
  %68 = add nsw i32 %65, -1
  store i32 %68, ptr %0, align 4, !tbaa !8
  br label %71

69:                                               ; preds = %64
  %.not.i35 = icmp eq i32 %65, 0
  br i1 %.not.i35, label %71, label %70

70:                                               ; preds = %69
  tail call void @lean_dec_ref_cold(ptr noundef nonnull %0) #7
  br label %71

71:                                               ; preds = %63, %62, %60, %56, %70, %69, %67, %._crit_edge
  %.2.ph = phi i8 [ 0, %._crit_edge ], [ 0, %67 ], [ 0, %69 ], [ 0, %70 ], [ 1, %56 ], [ 1, %60 ], [ 1, %62 ], [ 1, %63 ]
  ret i8 %.2.ph
}